; Function Attrs: mustprogress uwtable
define internal void @_ZL14signal_handleri(i32 noundef %0) #5 personality ptr @__gxx_personality_v0 {
  %2 = alloca %"class.gmx::InternalError", align 8
  %3 = alloca %"class.gmx::ExceptionInitializer", align 8
  %4 = alloca %"class.gmx::ExceptionInfo", align 8
  switch i32 %0, label %29 [
    i32 15, label %5
    i32 2, label %5
    i32 10, label %28
  ]

5:                                                ; preds = %1, %1
  %6 = load volatile i32, ptr @_ZL14stop_condition, align 4
  %7 = icmp ult i32 %6, 3
  br i1 %7, label %switch.lookup, label %8

8:                                                ; preds = %5
  %9 = tail call ptr @__cxa_allocate_exception(i64 24) #18
  invoke void @_ZN3gmx20ExceptionInitializerC2EPKc(ptr noundef nonnull align 8 dereferenceable(56) %3, ptr noundef nonnull @.str.10)
          to label %10 unwind label %.thread

10:                                               ; preds = %8
  invoke void @_ZN3gmx16GromacsExceptionC2ERKNS_20ExceptionInitializerE(ptr noundef nonnull align 8 dereferenceable(24) %2, ptr noundef nonnull align 8 dereferenceable(56) %3)
          to label %11 unwind label %.thread15

11:                                               ; preds = %10
  store ptr getelementptr inbounds inrange(-16, 32) ({ [6 x ptr] }, ptr @_ZTVN3gmx13InternalErrorE, i64 0, i32 0, i64 2), ptr %2, align 8
  store ptr getelementptr inbounds inrange(-16, 16) ({ [4 x ptr] }, ptr @_ZTVN3gmx13ExceptionInfoINS_22ExceptionInfoLocation_ENS_13ThrowLocationEEE, i64 0, i32 0, i64 2), ptr %4, align 8
  %12 = getelementptr inbounds i8, ptr %4, i64 8
  store ptr @__PRETTY_FUNCTION__._ZL14signal_handleri, ptr %12, align 8
  %.sroa.2.0..sroa_idx = getelementptr inbounds i8, ptr %4, i64 16
  store ptr @.str.11, ptr %.sroa.2.0..sroa_idx, align 8
  %.sroa.3.0..sroa_idx = getelementptr inbounds i8, ptr %4, i64 24
  store i32 90, ptr %.sroa.3.0..sroa_idx, align 8
  invoke void @_ZN3gmxlsINS_13InternalErrorENS_22ExceptionInfoLocation_ENS_13ThrowLocationEEENSt9enable_ifIXsr3std10is_base_ofINS_16GromacsExceptionET_EE5valueES6_E4typeES6_RKNS_13ExceptionInfoIT0_T1_EE(ptr dead_on_unwind writable sret(%"class.gmx::InternalError") align 8 %9, ptr noundef nonnull %2, ptr noundef nonnull align 8 dereferenceable(32) %4)
          to label %13 unwind label %16

13:                                               ; preds = %11
  invoke void @__cxa_throw(ptr %9, ptr nonnull @_ZTIN3gmx13InternalErrorE, ptr nonnull @_ZN3gmx13InternalErrorD2Ev) #19
          to label %31 unwind label %16

.thread:                                          ; preds = %8
  %14 = landingpad { ptr, i32 }
          cleanup
  br label %18

.thread15:                                        ; preds = %10
  %15 = landingpad { ptr, i32 }
          cleanup
  call void @_ZN3gmx20ExceptionInitializerD2Ev(ptr noundef nonnull align 8 dereferenceable(56) %3) #18
  br label %18

16:                                               ; preds = %11, %13
  %.0 = phi i1 [ false, %13 ], [ true, %11 ]
  %17 = landingpad { ptr, i32 }
          cleanup
  call void @_ZN3gmx8internal14IExceptionInfoD2Ev(ptr noundef nonnull align 8 dereferenceable(8) %4) #18
  call void @_ZN3gmx13InternalErrorD2Ev(ptr noundef nonnull align 8 dereferenceable(24) %2) #18
  call void @_ZN3gmx20ExceptionInitializerD2Ev(ptr noundef nonnull align 8 dereferenceable(56) %3) #18
  br i1 %.0, label %18, label %30

18:                                               ; preds = %.thread15, %.thread, %16
  %.pn.pn14 = phi { ptr, i32 } [ %14, %.thread ], [ %17, %16 ], [ %15, %.thread15 ]
  call void @__cxa_free_exception(ptr %9) #18
  br label %30

switch.lookup:                                    ; preds = %5
  %switch.offset = add nuw nsw i32 %6, 1
  store volatile i32 %switch.offset, ptr @_ZL14stop_condition, align 4
  switch i32 %0, label %20 [
    i32 2, label %.sink.split
    i32 15, label %19
  ]

19:                                               ; preds = %switch.lookup
  br label %.sink.split

.sink.split:                                      ; preds = %switch.lookup, %19
  %.sink18 = phi i32 [ 2, %19 ], [ 1, %switch.lookup ]
  store volatile i32 %.sink18, ptr @_ZL16last_signal_name, align 4
  br label %20

20:                                               ; preds = %.sink.split, %switch.lookup
  %21 = load volatile i32, ptr @_ZL14stop_condition, align 4
  %22 = icmp eq i32 %21, 2
  br i1 %22, label %23, label %24

23:                                               ; preds = %20
  store volatile i32 3, ptr @_ZL16last_signal_name, align 4
  br label %24

24:                                               ; preds = %23, %20
  %25 = load volatile i32, ptr @_ZL14stop_condition, align 4
  %26 = icmp sgt i32 %25, 2
  br i1 %26, label %27, label %29

27:                                               ; preds = %24
  tail call void @abort() #20
  unreachable

28:                                               ; preds = %1
  store volatile i32 1, ptr @_ZL13usr_condition, align 4
  br label %29

29:                                               ; preds = %1, %24, %28
  ret void

30:                                               ; preds = %16, %18
  %.pn.pn13 = phi { ptr, i32 } [ %17, %16 ], [ %.pn.pn14, %18 ]
  resume { ptr, i32 } %.pn.pn13

31:                                               ; preds = %13
  unreachable
}